; Function Attrs: mustprogress nofree norecurse nosync nounwind willreturn memory(argmem: readwrite) uwtable
define internal noundef i32 @cid_get_ros(ptr noundef readonly captures(none) %0, ptr noundef writeonly %1, ptr noundef writeonly %2, ptr noundef writeonly %3) #0 {
  %.not = icmp eq ptr %1, null
  br i1 %.not, label %8, label %5

5:                                                ; preds = %4
  %6 = getelementptr inbounds nuw i8, ptr %0, i64 288
  %7 = load ptr, ptr %6, align 8
  store ptr %7, ptr %1, align 8
  br label %8

8:                                                ; preds = %5, %4
  %.not13 = icmp eq ptr %2, null
  br i1 %.not13, label %12, label %9

9:                                                ; preds = %8
  %10 = getelementptr inbounds nuw i8, ptr %0, i64 296
  %11 = load ptr, ptr %10, align 8
  store ptr %11, ptr %2, align 8
  br label %12

12:                                               ; preds = %9, %8
  %.not14 = icmp eq ptr %3, null
  br i1 %.not14, label %16, label %13

13:                                               ; preds = %12
  %14 = getelementptr inbounds nuw i8, ptr %0, i64 304
  %15 = load i32, ptr %14, align 8
  store i32 %15, ptr %3, align 4
  br label %16

16:                                               ; preds = %13, %12
  ret i32 0
}